target datalayout = "e-m:e-p270:32:32-p271:32:32-p272:64:64-i64:64-i128:128-f80:128-n8:16:32:64-S128"
target triple = "x86_64-pc-linux-gnu"

%struct.AVProbeData = type { ptr, ptr, i32, ptr }
%struct.AVChannelLayout = type { i32, i32, %union.anon, ptr }
%union.anon = type { i64 }
%struct.AVFormatContext = type { ptr, ptr, ptr, ptr, ptr, i32, i32, ptr, i32, ptr, i32, ptr, ptr, i64, i64, i64, i32, i32, i32, i64, i64, ptr, i32, i32, ptr, i32, i32, i32, i32, ptr, i64, i32, i32, %struct.AVIOInterruptCB, i32, i32, i32, i32, i64, i32, i32, i32, i32, i32, i32, i32, i32, i32, i32, i32, i32, i64, i32, i32, i32, i32, i32, ptr, ptr, ptr, ptr, i32, ptr, ptr, ptr, ptr, i32, ptr, ptr, i64, ptr, ptr, ptr, i64 }
%struct.AVIOInterruptCB = type { ptr, ptr }
%struct.AVStream = type { ptr, i32, i32, ptr, ptr, %struct.AVRational, i64, i64, i64, i32, i32, %struct.AVRational, ptr, %struct.AVRational, %struct.AVPacket, i32, %struct.AVRational, i32 }
%struct.AVPacket = type { ptr, i64, i64, ptr, i32, i32, i32, ptr, i32, i64, i64, ptr, ptr, %struct.AVRational }
%struct.AVRational = type { i32, i32 }
%struct.AVCodecParameters = type { i32, i32, i32, ptr, i32, ptr, i32, i32, i64, i32, i32, i32, i32, i32, i32, %struct.AVRational, %struct.AVRational, i32, i32, i32, i32, i32, i32, i32, %struct.AVChannelLayout, i32, i32, i32, i32, i32, i32 }
%struct.FFStream = type { %struct.AVStream, ptr, i32, ptr, i32, ptr, i32, %struct.anon, i32, i32, %struct.FFFrac, ptr, ptr, i32, i32, i64, i64, i32, i32, i32, i64, i64, i64, i32, i64, i64, i64, i32, i32, [17 x i64], [17 x i8], [17 x i64], i64, i8, i8, %struct.AVRational, %struct.AVProbeData, ptr, i64, i32, i32, i32, ptr, i32, i32, i64, i64, ptr, %struct.AVRational }
%struct.anon = type { ptr, i32 }
%struct.FFFrac = type { i64, i64, i64 }

@AMR_header = internal constant [6 x i8] c"#!AMR\0A", align 1
@AMRWB_header = internal constant [9 x i8] c"#!AMR-WB\0A", align 1
@AMRMC_header = internal constant [12 x i8] c"#!AMR_MC1.0\0A", align 1
@AMRWBMC_header = internal constant [15 x i8] c"#!AMR-WB_MC1.0\0A", align 1

; Function Attrs: alwaysinline nounwind uwtable
define internal ptr @ffstream(ptr noundef %0) #6 {
  %2 = alloca ptr, align 8
  store ptr %0, ptr %2, align 8, !tbaa !32
  %3 = load ptr, ptr %2, align 8, !tbaa !32
  ret ptr %3
}

; Function Attrs: nounwind uwtable
define internal i32 @amr_read_header(ptr noundef %0) #0 {
  %2 = alloca i32, align 4
  %3 = alloca ptr, align 8
  %4 = alloca ptr, align 8
  %5 = alloca ptr, align 8
  %6 = alloca [19 x i8], align 16
  %7 = alloca i32, align 4
  %8 = alloca i32, align 4
  %9 = alloca i32, align 4
  %10 = alloca i32, align 4
  %11 = alloca %struct.AVChannelLayout, align 8
  %12 = alloca %struct.AVChannelLayout, align 8
  store ptr %0, ptr %3, align 8, !tbaa !13
  call void @llvm.lifetime.start.p0(i64 8, ptr %4) #8
  %13 = load ptr, ptr %3, align 8, !tbaa !13
  %14 = getelementptr inbounds nuw %struct.AVFormatContext, ptr %13, i32 0, i32 4
  %15 = load ptr, ptr %14, align 8, !tbaa !15
  store ptr %15, ptr %4, align 8, !tbaa !30
  call void @llvm.lifetime.start.p0(i64 8, ptr %5) #8
  call void @llvm.lifetime.start.p0(i64 19, ptr %6) #8
  call void @llvm.memset.p0.i64(ptr align 16 %6, i8 0, i64 19, i1 false)
  call void @llvm.lifetime.start.p0(i64 4, ptr %7) #8
  call void @llvm.lifetime.start.p0(i64 4, ptr %8) #8
  store i32 0, ptr %8, align 4, !tbaa !31
  call void @llvm.lifetime.start.p0(i64 4, ptr %9) #8
  %16 = load ptr, ptr %3, align 8, !tbaa !13
  %17 = getelementptr inbounds nuw %struct.AVFormatContext, ptr %16, i32 0, i32 4
  %18 = load ptr, ptr %17, align 8, !tbaa !15
  %19 = call i32 @ffio_ensure_seekback(ptr noundef %18, i64 noundef 19)
  store i32 %19, ptr %9, align 4, !tbaa !31
  %20 = load i32, ptr %9, align 4, !tbaa !31
  %21 = icmp slt i32 %20, 0
  br i1 %21, label %22, label %24

22:                                               ; preds = %1
  %23 = load i32, ptr %9, align 4, !tbaa !31
  store i32 %23, ptr %2, align 4
  store i32 1, ptr %10, align 4
  br label %192

24:                                               ; preds = %1
  %25 = load ptr, ptr %4, align 8, !tbaa !30
  %26 = getelementptr inbounds [19 x i8], ptr %6, i64 0, i64 0
  %27 = call i32 @avio_read(ptr noundef %25, ptr noundef %26, i32 noundef 19)
  store i32 %27, ptr %7, align 4, !tbaa !31
  %28 = load i32, ptr %7, align 4, !tbaa !31
  %29 = icmp slt i32 %28, 0
  br i1 %29, label %30, label %32

30:                                               ; preds = %24
  %31 = load i32, ptr %7, align 4, !tbaa !31
  store i32 %31, ptr %2, align 4
  store i32 1, ptr %10, align 4
  br label %192

32:                                               ; preds = %24
  %33 = load ptr, ptr %3, align 8, !tbaa !13
  %34 = call ptr @avformat_new_stream(ptr noundef %33, ptr noundef null)
  store ptr %34, ptr %5, align 8, !tbaa !32
  %35 = load ptr, ptr %5, align 8, !tbaa !32
  %36 = icmp ne ptr %35, null
  br i1 %36, label %38, label %37

37:                                               ; preds = %32
  store i32 -12, ptr %2, align 4
  store i32 1, ptr %10, align 4
  br label %192

38:                                               ; preds = %32
  %39 = getelementptr inbounds [19 x i8], ptr %6, i64 0, i64 0
  %40 = call i32 @memcmp(ptr noundef %39, ptr noundef @AMR_header, i64 noundef 6) #7
  %41 = icmp ne i32 %40, 0
  br i1 %41, label %67, label %42

42:                                               ; preds = %38
  %43 = load ptr, ptr %5, align 8, !tbaa !32
  %44 = getelementptr inbounds nuw %struct.AVStream, ptr %43, i32 0, i32 3
  %45 = load ptr, ptr %44, align 8, !tbaa !34
  %46 = getelementptr inbounds nuw %struct.AVCodecParameters, ptr %45, i32 0, i32 2
  store i32 1919770995, ptr %46, align 8, !tbaa !41
  %47 = load ptr, ptr %5, align 8, !tbaa !32
  %48 = getelementptr inbounds nuw %struct.AVStream, ptr %47, i32 0, i32 3
  %49 = load ptr, ptr %48, align 8, !tbaa !34
  %50 = getelementptr inbounds nuw %struct.AVCodecParameters, ptr %49, i32 0, i32 1
  store i32 73728, ptr %50, align 4, !tbaa !44
  %51 = load ptr, ptr %5, align 8, !tbaa !32
  %52 = getelementptr inbounds nuw %struct.AVStream, ptr %51, i32 0, i32 3
  %53 = load ptr, ptr %52, align 8, !tbaa !34
  %54 = getelementptr inbounds nuw %struct.AVCodecParameters, ptr %53, i32 0, i32 25
  store i32 8000, ptr %54, align 8, !tbaa !45
  %55 = load ptr, ptr %5, align 8, !tbaa !32
  %56 = getelementptr inbounds nuw %struct.AVStream, ptr %55, i32 0, i32 3
  %57 = load ptr, ptr %56, align 8, !tbaa !34
  %58 = getelementptr inbounds nuw %struct.AVCodecParameters, ptr %57, i32 0, i32 24
  %59 = getelementptr inbounds nuw %struct.AVChannelLayout, ptr %11, i32 0, i32 0
  store i32 1, ptr %59, align 8, !tbaa !46
  %60 = getelementptr inbounds nuw %struct.AVChannelLayout, ptr %11, i32 0, i32 1
  store i32 1, ptr %60, align 4, !tbaa !47
  %61 = getelementptr inbounds nuw %struct.AVChannelLayout, ptr %11, i32 0, i32 2
  store i64 4, ptr %61, align 8, !tbaa !48
  %62 = getelementptr inbounds nuw %struct.AVChannelLayout, ptr %11, i32 0, i32 3
  store ptr null, ptr %62, align 8, !tbaa !49
  call void @llvm.memcpy.p0.p0.i64(ptr align 8 %58, ptr align 8 %11, i64 24, i1 false), !tbaa.struct !50
  %63 = load i32, ptr %7, align 4, !tbaa !31
  %64 = sext i32 %63 to i64
  %65 = sub i64 %64, 6
  %66 = trunc i64 %65 to i32
  store i32 %66, ptr %8, align 4, !tbaa !31
  br label %160

67:                                               ; preds = %38
  %68 = getelementptr inbounds [19 x i8], ptr %6, i64 0, i64 0
  %69 = call i32 @memcmp(ptr noundef %68, ptr noundef @AMRWB_header, i64 noundef 9) #7
  %70 = icmp ne i32 %69, 0
  br i1 %70, label %96, label %71

71:                                               ; preds = %67
  %72 = load ptr, ptr %5, align 8, !tbaa !32
  %73 = getelementptr inbounds nuw %struct.AVStream, ptr %72, i32 0, i32 3
  %74 = load ptr, ptr %73, align 8, !tbaa !34
  %75 = getelementptr inbounds nuw %struct.AVCodecParameters, ptr %74, i32 0, i32 2
  store i32 1651990899, ptr %75, align 8, !tbaa !41
  %76 = load ptr, ptr %5, align 8, !tbaa !32
  %77 = getelementptr inbounds nuw %struct.AVStream, ptr %76, i32 0, i32 3
  %78 = load ptr, ptr %77, align 8, !tbaa !34
  %79 = getelementptr inbounds nuw %struct.AVCodecParameters, ptr %78, i32 0, i32 1
  store i32 73729, ptr %79, align 4, !tbaa !44
  %80 = load ptr, ptr %5, align 8, !tbaa !32
  %81 = getelementptr inbounds nuw %struct.AVStream, ptr %80, i32 0, i32 3
  %82 = load ptr, ptr %81, align 8, !tbaa !34
  %83 = getelementptr inbounds nuw %struct.AVCodecParameters, ptr %82, i32 0, i32 25
  store i32 16000, ptr %83, align 8, !tbaa !45
  %84 = load ptr, ptr %5, align 8, !tbaa !32
  %85 = getelementptr inbounds nuw %struct.AVStream, ptr %84, i32 0, i32 3
  %86 = load ptr, ptr %85, align 8, !tbaa !34
  %87 = getelementptr inbounds nuw %struct.AVCodecParameters, ptr %86, i32 0, i32 24
  %88 = getelementptr inbounds nuw %struct.AVChannelLayout, ptr %12, i32 0, i32 0
  store i32 1, ptr %88, align 8, !tbaa !46
  %89 = getelementptr inbounds nuw %struct.AVChannelLayout, ptr %12, i32 0, i32 1
  store i32 1, ptr %89, align 4, !tbaa !47
  %90 = getelementptr inbounds nuw %struct.AVChannelLayout, ptr %12, i32 0, i32 2
  store i64 4, ptr %90, align 8, !tbaa !48
  %91 = getelementptr inbounds nuw %struct.AVChannelLayout, ptr %12, i32 0, i32 3
  store ptr null, ptr %91, align 8, !tbaa !49
  call void @llvm.memcpy.p0.p0.i64(ptr align 8 %87, ptr align 8 %12, i64 24, i1 false), !tbaa.struct !50
  %92 = load i32, ptr %7, align 4, !tbaa !31
  %93 = sext i32 %92 to i64
  %94 = sub i64 %93, 9
  %95 = trunc i64 %94 to i32
  store i32 %95, ptr %8, align 4, !tbaa !31
  br label %159

96:                                               ; preds = %67
  %97 = getelementptr inbounds [19 x i8], ptr %6, i64 0, i64 0
  %98 = call i32 @memcmp(ptr noundef %97, ptr noundef @AMRMC_header, i64 noundef 12) #7
  %99 = icmp ne i32 %98, 0
  br i1 %99, label %126, label %100

100:                                              ; preds = %96
  %101 = load ptr, ptr %5, align 8, !tbaa !32
  %102 = getelementptr inbounds nuw %struct.AVStream, ptr %101, i32 0, i32 3
  %103 = load ptr, ptr %102, align 8, !tbaa !34
  %104 = getelementptr inbounds nuw %struct.AVCodecParameters, ptr %103, i32 0, i32 2
  store i32 1919770995, ptr %104, align 8, !tbaa !41
  %105 = load ptr, ptr %5, align 8, !tbaa !32
  %106 = getelementptr inbounds nuw %struct.AVStream, ptr %105, i32 0, i32 3
  %107 = load ptr, ptr %106, align 8, !tbaa !34
  %108 = getelementptr inbounds nuw %struct.AVCodecParameters, ptr %107, i32 0, i32 1
  store i32 73728, ptr %108, align 4, !tbaa !44
  %109 = load ptr, ptr %5, align 8, !tbaa !32
  %110 = getelementptr inbounds nuw %struct.AVStream, ptr %109, i32 0, i32 3
  %111 = load ptr, ptr %110, align 8, !tbaa !34
  %112 = getelementptr inbounds nuw %struct.AVCodecParameters, ptr %111, i32 0, i32 25
  store i32 8000, ptr %112, align 8, !tbaa !45
  %113 = getelementptr inbounds [19 x i8], ptr %6, i64 0, i64 0
  %114 = getelementptr inbounds i8, ptr %113, i64 12
  %115 = load i32, ptr %114, align 1, !tbaa !48
  %116 = load ptr, ptr %5, align 8, !tbaa !32
  %117 = getelementptr inbounds nuw %struct.AVStream, ptr %116, i32 0, i32 3
  %118 = load ptr, ptr %117, align 8, !tbaa !34
  %119 = getelementptr inbounds nuw %struct.AVCodecParameters, ptr %118, i32 0, i32 24
  %120 = getelementptr inbounds nuw %struct.AVChannelLayout, ptr %119, i32 0, i32 1
  store i32 %115, ptr %120, align 4, !tbaa !52
  %121 = load i32, ptr %7, align 4, !tbaa !31
  %122 = sub nsw i32 %121, 4
  %123 = sext i32 %122 to i64
  %124 = sub i64 %123, 12
  %125 = trunc i64 %124 to i32
  store i32 %125, ptr %8, align 4, !tbaa !31
  br label %158

126:                                              ; preds = %96
  %127 = getelementptr inbounds [19 x i8], ptr %6, i64 0, i64 0
  %128 = call i32 @memcmp(ptr noundef %127, ptr noundef @AMRWBMC_header, i64 noundef 15) #7
  %129 = icmp ne i32 %128, 0
  br i1 %129, label %156, label %130

130:                                              ; preds = %126
  %131 = load ptr, ptr %5, align 8, !tbaa !32
  %132 = getelementptr inbounds nuw %struct.AVStream, ptr %131, i32 0, i32 3
  %133 = load ptr, ptr %132, align 8, !tbaa !34
  %134 = getelementptr inbounds nuw %struct.AVCodecParameters, ptr %133, i32 0, i32 2
  store i32 1651990899, ptr %134, align 8, !tbaa !41
  %135 = load ptr, ptr %5, align 8, !tbaa !32
  %136 = getelementptr inbounds nuw %struct.AVStream, ptr %135, i32 0, i32 3
  %137 = load ptr, ptr %136, align 8, !tbaa !34
  %138 = getelementptr inbounds nuw %struct.AVCodecParameters, ptr %137, i32 0, i32 1
  store i32 73729, ptr %138, align 4, !tbaa !44
  %139 = load ptr, ptr %5, align 8, !tbaa !32
  %140 = getelementptr inbounds nuw %struct.AVStream, ptr %139, i32 0, i32 3
  %141 = load ptr, ptr %140, align 8, !tbaa !34
  %142 = getelementptr inbounds nuw %struct.AVCodecParameters, ptr %141, i32 0, i32 25
  store i32 16000, ptr %142, align 8, !tbaa !45
  %143 = getelementptr inbounds [19 x i8], ptr %6, i64 0, i64 0
  %144 = getelementptr inbounds i8, ptr %143, i64 15
  %145 = load i32, ptr %144, align 1, !tbaa !48
  %146 = load ptr, ptr %5, align 8, !tbaa !32
  %147 = getelementptr inbounds nuw %struct.AVStream, ptr %146, i32 0, i32 3
  %148 = load ptr, ptr %147, align 8, !tbaa !34
  %149 = getelementptr inbounds nuw %struct.AVCodecParameters, ptr %148, i32 0, i32 24
  %150 = getelementptr inbounds nuw %struct.AVChannelLayout, ptr %149, i32 0, i32 1
  store i32 %145, ptr %150, align 4, !tbaa !52
  %151 = load i32, ptr %7, align 4, !tbaa !31
  %152 = sub nsw i32 %151, 4
  %153 = sext i32 %152 to i64
  %154 = sub i64 %153, 15
  %155 = trunc i64 %154 to i32
  store i32 %155, ptr %8, align 4, !tbaa !31
  br label %157

156:                                              ; preds = %126
  store i32 -1094995529, ptr %2, align 4
  store i32 1, ptr %10, align 4
  br label %192

157:                                              ; preds = %130
  br label %158

158:                                              ; preds = %157, %100
  br label %159

159:                                              ; preds = %158, %71
  br label %160

160:                                              ; preds = %159, %42
  %161 = load ptr, ptr %5, align 8, !tbaa !32
  %162 = getelementptr inbounds nuw %struct.AVStream, ptr %161, i32 0, i32 3
  %163 = load ptr, ptr %162, align 8, !tbaa !34
  %164 = getelementptr inbounds nuw %struct.AVCodecParameters, ptr %163, i32 0, i32 24
  %165 = getelementptr inbounds nuw %struct.AVChannelLayout, ptr %164, i32 0, i32 1
  %166 = load i32, ptr %165, align 4, !tbaa !52
  %167 = icmp slt i32 %166, 1
  br i1 %167, label %168, label %169

168:                                              ; preds = %160
  store i32 -1094995529, ptr %2, align 4
  store i32 1, ptr %10, align 4
  br label %192

169:                                              ; preds = %160
  %170 = load ptr, ptr %5, align 8, !tbaa !32
  %171 = getelementptr inbounds nuw %struct.AVStream, ptr %170, i32 0, i32 3
  %172 = load ptr, ptr %171, align 8, !tbaa !34
  %173 = getelementptr inbounds nuw %struct.AVCodecParameters, ptr %172, i32 0, i32 0
  store i32 1, ptr %173, align 8, !tbaa !53
  %174 = load ptr, ptr %5, align 8, !tbaa !32
  %175 = call ptr @ffstream(ptr noundef %174)
  %176 = getelementptr inbounds nuw %struct.FFStream, ptr %175, i32 0, i32 41
  store i32 5, ptr %176, align 8, !tbaa !54
  %177 = load ptr, ptr %5, align 8, !tbaa !32
  %178 = load ptr, ptr %5, align 8, !tbaa !32
  %179 = getelementptr inbounds nuw %struct.AVStream, ptr %178, i32 0, i32 3
  %180 = load ptr, ptr %179, align 8, !tbaa !34
  %181 = getelementptr inbounds nuw %struct.AVCodecParameters, ptr %180, i32 0, i32 25
  %182 = load i32, ptr %181, align 8, !tbaa !45
  call void @avpriv_set_pts_info(ptr noundef %177, i32 noundef 64, i32 noundef 1, i32 noundef %182)
  %183 = load i32, ptr %8, align 4, !tbaa !31
  %184 = icmp sgt i32 %183, 0
  br i1 %184, label %185, label %191

185:                                              ; preds = %169
  %186 = load ptr, ptr %4, align 8, !tbaa !30
  %187 = load i32, ptr %8, align 4, !tbaa !31
  %188 = sub nsw i32 0, %187
  %189 = sext i32 %188 to i64
  %190 = call i64 @avio_seek(ptr noundef %186, i64 noundef %189, i32 noundef 1)
  br label %191

191:                                              ; preds = %185, %169
  store i32 0, ptr %2, align 4
  store i32 1, ptr %10, align 4
  br label %192

192:                                              ; preds = %191, %168, %156, %37, %30, %22
  call void @llvm.lifetime.end.p0(i64 4, ptr %9) #8
  call void @llvm.lifetime.end.p0(i64 4, ptr %8) #8
  call void @llvm.lifetime.end.p0(i64 4, ptr %7) #8
  call void @llvm.lifetime.end.p0(i64 19, ptr %6) #8
  call void @llvm.lifetime.end.p0(i64 8, ptr %5) #8
  call void @llvm.lifetime.end.p0(i64 8, ptr %4) #8
  %193 = load i32, ptr %2, align 4
  ret i32 %193
}