; Function Attrs: nounwind uwtable
define internal range(i32 -2147483648, 1) i32 @amr_read_header(ptr noundef %0) #1 {
  %2 = alloca [19 x i8], align 16
  %3 = getelementptr inbounds nuw i8, ptr %0, i64 32
  %4 = load ptr, ptr %3, align 8, !tbaa !11
  call void @llvm.lifetime.start.p0(i64 19, ptr nonnull %2) #7
  call void @llvm.memset.p0.i64(ptr noundef nonnull align 16 dereferenceable(19) %2, i8 0, i64 19, i1 false)
  %5 = tail call i32 @ffio_ensure_seekback(ptr noundef %4, i64 noundef 19) #7
  %6 = icmp slt i32 %5, 0
  br i1 %6, label %64, label %7

7:                                                ; preds = %1
  %8 = call i32 @avio_read(ptr noundef %4, ptr noundef nonnull %2, i32 noundef 19) #7
  %9 = icmp slt i32 %8, 0
  br i1 %9, label %64, label %10

10:                                               ; preds = %7
  %11 = call ptr @avformat_new_stream(ptr noundef nonnull %0, ptr noundef null) #7
  %.not = icmp eq ptr %11, null
  br i1 %.not, label %64, label %12

12:                                               ; preds = %10
  %bcmp = call i32 @bcmp(ptr noundef nonnull dereferenceable(6) %2, ptr noundef nonnull dereferenceable(6) @AMR_header, i64 6)
  %.not45 = icmp eq i32 %bcmp, 0
  br i1 %.not45, label %13, label %20

13:                                               ; preds = %12
  %14 = getelementptr inbounds nuw i8, ptr %11, i64 16
  %15 = load ptr, ptr %14, align 8, !tbaa !26
  %16 = getelementptr inbounds nuw i8, ptr %15, i64 8
  store i32 1919770995, ptr %16, align 8, !tbaa !33
  %17 = getelementptr inbounds nuw i8, ptr %15, i64 4
  store i32 73728, ptr %17, align 4, !tbaa !36
  %18 = getelementptr inbounds nuw i8, ptr %15, i64 152
  store i32 8000, ptr %18, align 8, !tbaa !37
  %19 = getelementptr inbounds nuw i8, ptr %15, i64 128
  store i32 1, ptr %19, align 8, !tbaa !38
  %.sroa.22.0..sroa_idx = getelementptr inbounds nuw i8, ptr %15, i64 132
  store i32 1, ptr %.sroa.22.0..sroa_idx, align 4, !tbaa !38
  %.sroa.33.0..sroa_idx = getelementptr inbounds nuw i8, ptr %15, i64 136
  store i64 4, ptr %.sroa.33.0..sroa_idx, align 8, !tbaa !39
  %.sroa.44.0..sroa_idx = getelementptr inbounds nuw i8, ptr %15, i64 144
  store ptr null, ptr %.sroa.44.0..sroa_idx, align 8, !tbaa !40
  br label %48

20:                                               ; preds = %12
  %bcmp46 = call i32 @bcmp(ptr noundef nonnull dereferenceable(9) %2, ptr noundef nonnull dereferenceable(9) @AMRWB_header, i64 9)
  %.not47 = icmp eq i32 %bcmp46, 0
  br i1 %.not47, label %21, label %28

21:                                               ; preds = %20
  %22 = getelementptr inbounds nuw i8, ptr %11, i64 16
  %23 = load ptr, ptr %22, align 8, !tbaa !26
  %24 = getelementptr inbounds nuw i8, ptr %23, i64 8
  store i32 1651990899, ptr %24, align 8, !tbaa !33
  %25 = getelementptr inbounds nuw i8, ptr %23, i64 4
  store i32 73729, ptr %25, align 4, !tbaa !36
  %26 = getelementptr inbounds nuw i8, ptr %23, i64 152
  store i32 16000, ptr %26, align 8, !tbaa !37
  %27 = getelementptr inbounds nuw i8, ptr %23, i64 128
  store i32 1, ptr %27, align 8, !tbaa !38
  %.sroa.2.0..sroa_idx = getelementptr inbounds nuw i8, ptr %23, i64 132
  store i32 1, ptr %.sroa.2.0..sroa_idx, align 4, !tbaa !38
  %.sroa.3.0..sroa_idx = getelementptr inbounds nuw i8, ptr %23, i64 136
  store i64 4, ptr %.sroa.3.0..sroa_idx, align 8, !tbaa !39
  %.sroa.4.0..sroa_idx = getelementptr inbounds nuw i8, ptr %23, i64 144
  store ptr null, ptr %.sroa.4.0..sroa_idx, align 8, !tbaa !40
  br label %48

28:                                               ; preds = %20
  %bcmp48 = call i32 @bcmp(ptr noundef nonnull dereferenceable(12) %2, ptr noundef nonnull dereferenceable(12) @AMRMC_header, i64 12)
  %.not49 = icmp eq i32 %bcmp48, 0
  br i1 %.not49, label %29, label %38

29:                                               ; preds = %28
  %30 = getelementptr inbounds nuw i8, ptr %11, i64 16
  %31 = load ptr, ptr %30, align 8, !tbaa !26
  %32 = getelementptr inbounds nuw i8, ptr %31, i64 8
  store i32 1919770995, ptr %32, align 8, !tbaa !33
  %33 = getelementptr inbounds nuw i8, ptr %31, i64 4
  store i32 73728, ptr %33, align 4, !tbaa !36
  %34 = getelementptr inbounds nuw i8, ptr %31, i64 152
  store i32 8000, ptr %34, align 8, !tbaa !37
  %35 = getelementptr inbounds nuw i8, ptr %2, i64 12
  %36 = load i32, ptr %35, align 4, !tbaa !39
  %37 = getelementptr inbounds nuw i8, ptr %31, i64 132
  store i32 %36, ptr %37, align 4, !tbaa !41
  br label %48

38:                                               ; preds = %28
  %bcmp50 = call i32 @bcmp(ptr noundef nonnull dereferenceable(15) %2, ptr noundef nonnull dereferenceable(15) @AMRWBMC_header, i64 15)
  %.not51 = icmp eq i32 %bcmp50, 0
  br i1 %.not51, label %39, label %64

39:                                               ; preds = %38
  %40 = getelementptr inbounds nuw i8, ptr %11, i64 16
  %41 = load ptr, ptr %40, align 8, !tbaa !26
  %42 = getelementptr inbounds nuw i8, ptr %41, i64 8
  store i32 1651990899, ptr %42, align 8, !tbaa !33
  %43 = getelementptr inbounds nuw i8, ptr %41, i64 4
  store i32 73729, ptr %43, align 4, !tbaa !36
  %44 = getelementptr inbounds nuw i8, ptr %41, i64 152
  store i32 16000, ptr %44, align 8, !tbaa !37
  %45 = getelementptr inbounds nuw i8, ptr %2, i64 15
  %46 = load i32, ptr %45, align 1, !tbaa !39
  %47 = getelementptr inbounds nuw i8, ptr %41, i64 132
  store i32 %46, ptr %47, align 4, !tbaa !41
  br label %48

48:                                               ; preds = %21, %39, %29, %13
  %.sink = phi i32 [ -9, %21 ], [ -19, %39 ], [ -16, %29 ], [ -6, %13 ]
  %49 = add nsw i32 %8, %.sink
  %50 = getelementptr inbounds nuw i8, ptr %11, i64 16
  %51 = load ptr, ptr %50, align 8, !tbaa !26
  %52 = getelementptr inbounds nuw i8, ptr %51, i64 132
  %53 = load i32, ptr %52, align 4, !tbaa !41
  %54 = icmp slt i32 %53, 1
  br i1 %54, label %64, label %55

55:                                               ; preds = %48
  store i32 1, ptr %51, align 8, !tbaa !42
  %56 = getelementptr inbounds nuw i8, ptr %11, i64 808
  store i32 5, ptr %56, align 8, !tbaa !43
  %57 = getelementptr inbounds nuw i8, ptr %51, i64 152
  %58 = load i32, ptr %57, align 8, !tbaa !37
  call void @avpriv_set_pts_info(ptr noundef nonnull %11, i32 noundef 64, i32 noundef 1, i32 noundef %58) #7
  %59 = icmp sgt i32 %49, 0
  br i1 %59, label %60, label %64

60:                                               ; preds = %55
  %61 = sub nsw i32 0, %49
  %62 = sext i32 %61 to i64
  %63 = call i64 @avio_seek(ptr noundef %4, i64 noundef %62, i32 noundef 1) #7
  br label %64

64:                                               ; preds = %55, %60, %48, %38, %10, %7, %1
  %.0 = phi i32 [ %5, %1 ], [ %8, %7 ], [ -12, %10 ], [ -1094995529, %38 ], [ -1094995529, %48 ], [ 0, %60 ], [ 0, %55 ]
  call void @llvm.lifetime.end.p0(i64 19, ptr nonnull %2) #7
  ret i32 %.0
}